
a.out:     file format elf32-i386


Disassembly of section .init:

000003a0 <_init>:
 3a0:	53                   	push   %ebx
 3a1:	83 ec 08             	sub    $0x8,%esp
 3a4:	e8 a7 00 00 00       	call   450 <__x86.get_pc_thunk.bx>
 3a9:	81 c3 2f 1c 00 00    	add    $0x1c2f,%ebx
 3af:	8b 83 1c 00 00 00    	mov    0x1c(%ebx),%eax
 3b5:	85 c0                	test   %eax,%eax
 3b7:	74 05                	je     3be <_init+0x1e>
 3b9:	e8 4a 00 00 00       	call   408 <__gmon_start__@plt>
 3be:	83 c4 08             	add    $0x8,%esp
 3c1:	5b                   	pop    %ebx
 3c2:	c3                   	ret    

Disassembly of section .plt:

000003d0 <.plt>:
 3d0:	ff b3 04 00 00 00    	pushl  0x4(%ebx)
 3d6:	ff a3 08 00 00 00    	jmp    *0x8(%ebx)
 3dc:	00 00                	add    %al,(%eax)
	...

000003e0 <__stack_chk_fail@plt>:
 3e0:	ff a3 0c 00 00 00    	jmp    *0xc(%ebx)
 3e6:	68 00 00 00 00       	push   $0x0
 3eb:	e9 e0 ff ff ff       	jmp    3d0 <.plt>

000003f0 <__libc_start_main@plt>:
 3f0:	ff a3 10 00 00 00    	jmp    *0x10(%ebx)
 3f6:	68 08 00 00 00       	push   $0x8
 3fb:	e9 d0 ff ff ff       	jmp    3d0 <.plt>

Disassembly of section .plt.got:

00000400 <__cxa_finalize@plt>:
 400:	ff a3 18 00 00 00    	jmp    *0x18(%ebx)
 406:	66 90                	xchg   %ax,%ax

00000408 <__gmon_start__@plt>:
 408:	ff a3 1c 00 00 00    	jmp    *0x1c(%ebx)
 40e:	66 90                	xchg   %ax,%ax

Disassembly of section .text:

00000410 <_start>:
 410:	31 ed                	xor    %ebp,%ebp
 412:	5e                   	pop    %esi
 413:	89 e1                	mov    %esp,%ecx
 415:	83 e4 f0             	and    $0xfffffff0,%esp
 418:	50                   	push   %eax
 419:	54                   	push   %esp
 41a:	52                   	push   %edx
 41b:	e8 22 00 00 00       	call   442 <_start+0x32>
 420:	81 c3 b8 1b 00 00    	add    $0x1bb8,%ebx
 426:	8d 83 28 e6 ff ff    	lea    -0x19d8(%ebx),%eax
 42c:	50                   	push   %eax
 42d:	8d 83 c8 e5 ff ff    	lea    -0x1a38(%ebx),%eax
 433:	50                   	push   %eax
 434:	51                   	push   %ecx
 435:	56                   	push   %esi
 436:	ff b3 20 00 00 00    	pushl  0x20(%ebx)
 43c:	e8 af ff ff ff       	call   3f0 <__libc_start_main@plt>
 441:	f4                   	hlt    
 442:	8b 1c 24             	mov    (%esp),%ebx
 445:	c3                   	ret    
 446:	66 90                	xchg   %ax,%ax
 448:	66 90                	xchg   %ax,%ax
 44a:	66 90                	xchg   %ax,%ax
 44c:	66 90                	xchg   %ax,%ax
 44e:	66 90                	xchg   %ax,%ax

00000450 <__x86.get_pc_thunk.bx>:
 450:	8b 1c 24             	mov    (%esp),%ebx
 453:	c3                   	ret    
 454:	66 90                	xchg   %ax,%ax
 456:	66 90                	xchg   %ax,%ax
 458:	66 90                	xchg   %ax,%ax
 45a:	66 90                	xchg   %ax,%ax
 45c:	66 90                	xchg   %ax,%ax
 45e:	66 90                	xchg   %ax,%ax

00000460 <deregister_tm_clones>:
 460:	e8 e4 00 00 00       	call   549 <__x86.get_pc_thunk.dx>
 465:	81 c2 73 1b 00 00    	add    $0x1b73,%edx
 46b:	8d 8a 30 00 00 00    	lea    0x30(%edx),%ecx
 471:	8d 82 30 00 00 00    	lea    0x30(%edx),%eax
 477:	39 c8                	cmp    %ecx,%eax
 479:	74 1d                	je     498 <deregister_tm_clones+0x38>
 47b:	8b 82 14 00 00 00    	mov    0x14(%edx),%eax
 481:	85 c0                	test   %eax,%eax
 483:	74 13                	je     498 <deregister_tm_clones+0x38>
 485:	55                   	push   %ebp
 486:	89 e5                	mov    %esp,%ebp
 488:	83 ec 14             	sub    $0x14,%esp
 48b:	51                   	push   %ecx
 48c:	ff d0                	call   *%eax
 48e:	83 c4 10             	add    $0x10,%esp
 491:	c9                   	leave  
 492:	c3                   	ret    
 493:	90                   	nop
 494:	8d 74 26 00          	lea    0x0(%esi,%eiz,1),%esi
 498:	f3 c3                	repz ret 
 49a:	8d b6 00 00 00 00    	lea    0x0(%esi),%esi

000004a0 <register_tm_clones>:
 4a0:	e8 a4 00 00 00       	call   549 <__x86.get_pc_thunk.dx>
 4a5:	81 c2 33 1b 00 00    	add    $0x1b33,%edx
 4ab:	55                   	push   %ebp
 4ac:	8d 8a 30 00 00 00    	lea    0x30(%edx),%ecx
 4b2:	8d 82 30 00 00 00    	lea    0x30(%edx),%eax
 4b8:	29 c8                	sub    %ecx,%eax
 4ba:	89 e5                	mov    %esp,%ebp
 4bc:	53                   	push   %ebx
 4bd:	c1 f8 02             	sar    $0x2,%eax
 4c0:	89 c3                	mov    %eax,%ebx
 4c2:	83 ec 04             	sub    $0x4,%esp
 4c5:	c1 eb 1f             	shr    $0x1f,%ebx
 4c8:	01 d8                	add    %ebx,%eax
 4ca:	d1 f8                	sar    %eax
 4cc:	74 14                	je     4e2 <register_tm_clones+0x42>
 4ce:	8b 92 24 00 00 00    	mov    0x24(%edx),%edx
 4d4:	85 d2                	test   %edx,%edx
 4d6:	74 0a                	je     4e2 <register_tm_clones+0x42>
 4d8:	83 ec 08             	sub    $0x8,%esp
 4db:	50                   	push   %eax
 4dc:	51                   	push   %ecx
 4dd:	ff d2                	call   *%edx
 4df:	83 c4 10             	add    $0x10,%esp
 4e2:	8b 5d fc             	mov    -0x4(%ebp),%ebx
 4e5:	c9                   	leave  
 4e6:	c3                   	ret    
 4e7:	89 f6                	mov    %esi,%esi
 4e9:	8d bc 27 00 00 00 00 	lea    0x0(%edi,%eiz,1),%edi

000004f0 <__do_global_dtors_aux>:
 4f0:	55                   	push   %ebp
 4f1:	89 e5                	mov    %esp,%ebp
 4f3:	53                   	push   %ebx
 4f4:	e8 57 ff ff ff       	call   450 <__x86.get_pc_thunk.bx>
 4f9:	81 c3 df 1a 00 00    	add    $0x1adf,%ebx
 4ff:	83 ec 04             	sub    $0x4,%esp
 502:	80 bb 30 00 00 00 00 	cmpb   $0x0,0x30(%ebx)
 509:	75 27                	jne    532 <__do_global_dtors_aux+0x42>
 50b:	8b 83 18 00 00 00    	mov    0x18(%ebx),%eax
 511:	85 c0                	test   %eax,%eax
 513:	74 11                	je     526 <__do_global_dtors_aux+0x36>
 515:	83 ec 0c             	sub    $0xc,%esp
 518:	ff b3 2c 00 00 00    	pushl  0x2c(%ebx)
 51e:	e8 dd fe ff ff       	call   400 <__cxa_finalize@plt>
 523:	83 c4 10             	add    $0x10,%esp
 526:	e8 35 ff ff ff       	call   460 <deregister_tm_clones>
 52b:	c6 83 30 00 00 00 01 	movb   $0x1,0x30(%ebx)
 532:	8b 5d fc             	mov    -0x4(%ebp),%ebx
 535:	c9                   	leave  
 536:	c3                   	ret    
 537:	89 f6                	mov    %esi,%esi
 539:	8d bc 27 00 00 00 00 	lea    0x0(%edi,%eiz,1),%edi

00000540 <frame_dummy>:
 540:	55                   	push   %ebp
 541:	89 e5                	mov    %esp,%ebp
 543:	5d                   	pop    %ebp
 544:	e9 57 ff ff ff       	jmp    4a0 <register_tm_clones>

00000549 <__x86.get_pc_thunk.dx>:
 549:	8b 14 24             	mov    (%esp),%edx
 54c:	c3                   	ret    

0000054d <main>:
 54d:	8d 4c 24 04          	lea    0x4(%esp),%ecx
 551:	83 e4 f0             	and    $0xfffffff0,%esp
 554:	ff 71 fc             	pushl  -0x4(%ecx)
 557:	55                   	push   %ebp
 558:	89 e5                	mov    %esp,%ebp
 55a:	51                   	push   %ecx
 55b:	83 ec 14             	sub    $0x14,%esp
 55e:	e8 39 00 00 00       	call   59c <__x86.get_pc_thunk.ax>
 563:	05 75 1a 00 00       	add    $0x1a75,%eax
 568:	65 a1 14 00 00 00    	mov    %gs:0x14,%eax
 56e:	89 45 f4             	mov    %eax,-0xc(%ebp)
 571:	31 c0                	xor    %eax,%eax
 573:	8d 45 ec             	lea    -0x14(%ebp),%eax
 576:	89 45 f0             	mov    %eax,-0x10(%ebp)
 579:	83 45 f0 04          	addl   $0x4,-0x10(%ebp)
 57d:	b8 00 00 00 00       	mov    $0x0,%eax
 582:	8b 55 f4             	mov    -0xc(%ebp),%edx
 585:	65 33 15 14 00 00 00 	xor    %gs:0x14,%edx
 58c:	74 05                	je     593 <main+0x46>
 58e:	e8 7d 00 00 00       	call   610 <__stack_chk_fail_local>
 593:	83 c4 14             	add    $0x14,%esp
 596:	59                   	pop    %ecx
 597:	5d                   	pop    %ebp
 598:	8d 61 fc             	lea    -0x4(%ecx),%esp
 59b:	c3                   	ret    

0000059c <__x86.get_pc_thunk.ax>:
 59c:	8b 04 24             	mov    (%esp),%eax
 59f:	c3                   	ret    

000005a0 <__libc_csu_init>:
 5a0:	55                   	push   %ebp
 5a1:	57                   	push   %edi
 5a2:	56                   	push   %esi
 5a3:	53                   	push   %ebx
 5a4:	e8 a7 fe ff ff       	call   450 <__x86.get_pc_thunk.bx>
 5a9:	81 c3 2f 1a 00 00    	add    $0x1a2f,%ebx
 5af:	83 ec 0c             	sub    $0xc,%esp
 5b2:	8b 6c 24 28          	mov    0x28(%esp),%ebp
 5b6:	8d b3 04 ff ff ff    	lea    -0xfc(%ebx),%esi
 5bc:	e8 df fd ff ff       	call   3a0 <_init>
 5c1:	8d 83 00 ff ff ff    	lea    -0x100(%ebx),%eax
 5c7:	29 c6                	sub    %eax,%esi
 5c9:	c1 fe 02             	sar    $0x2,%esi
 5cc:	85 f6                	test   %esi,%esi
 5ce:	74 25                	je     5f5 <__libc_csu_init+0x55>
 5d0:	31 ff                	xor    %edi,%edi
 5d2:	8d b6 00 00 00 00    	lea    0x0(%esi),%esi
 5d8:	83 ec 04             	sub    $0x4,%esp
 5db:	55                   	push   %ebp
 5dc:	ff 74 24 2c          	pushl  0x2c(%esp)
 5e0:	ff 74 24 2c          	pushl  0x2c(%esp)
 5e4:	ff 94 bb 00 ff ff ff 	call   *-0x100(%ebx,%edi,4)
 5eb:	83 c7 01             	add    $0x1,%edi
 5ee:	83 c4 10             	add    $0x10,%esp
 5f1:	39 fe                	cmp    %edi,%esi
 5f3:	75 e3                	jne    5d8 <__libc_csu_init+0x38>
 5f5:	83 c4 0c             	add    $0xc,%esp
 5f8:	5b                   	pop    %ebx
 5f9:	5e                   	pop    %esi
 5fa:	5f                   	pop    %edi
 5fb:	5d                   	pop    %ebp
 5fc:	c3                   	ret    
 5fd:	8d 76 00             	lea    0x0(%esi),%esi

00000600 <__libc_csu_fini>:
 600:	f3 c3                	repz ret 
 602:	66 90                	xchg   %ax,%ax
 604:	66 90                	xchg   %ax,%ax
 606:	66 90                	xchg   %ax,%ax
 608:	66 90                	xchg   %ax,%ax
 60a:	66 90                	xchg   %ax,%ax
 60c:	66 90                	xchg   %ax,%ax
 60e:	66 90                	xchg   %ax,%ax

00000610 <__stack_chk_fail_local>:
 610:	53                   	push   %ebx
 611:	e8 3a fe ff ff       	call   450 <__x86.get_pc_thunk.bx>
 616:	81 c3 c2 19 00 00    	add    $0x19c2,%ebx
 61c:	83 ec 08             	sub    $0x8,%esp
 61f:	e8 bc fd ff ff       	call   3e0 <__stack_chk_fail@plt>

Disassembly of section .fini:

00000624 <_fini>:
 624:	53                   	push   %ebx
 625:	83 ec 08             	sub    $0x8,%esp
 628:	e8 23 fe ff ff       	call   450 <__x86.get_pc_thunk.bx>
 62d:	81 c3 ab 19 00 00    	add    $0x19ab,%ebx
 633:	83 c4 08             	add    $0x8,%esp
 636:	5b                   	pop    %ebx
 637:	c3                   	ret    
